target datalayout = "e-m:e-p270:32:32-p271:32:32-p272:64:64-i64:64-i128:128-f80:128-n8:16:32:64-S128"
target triple = "x86_64-pc-linux-gnu"

%struct.H5G_loc_t = type { ptr, ptr }
%struct.H5VL_loc_params_t = type { i32, i32, %union.anon.0 }
%union.anon.0 = type { %struct.H5VL_loc_by_idx }
%struct.H5VL_loc_by_idx = type { ptr, i32, i32, i64, i64 }
%struct.H5VL_loc_by_name = type { ptr, i64 }

@.str = private unnamed_addr constant [109 x i8] c"generated/home/dtcxzyw/WorkSpace/Projects/compilers/llvm-opt-benchmark/bench/hdf5/hdf5/src/H5VLnative_link.c\00", align 1
@H5E_ARGS_g = external global i64, align 8
@H5E_BADTYPE_g = external global i64, align 8
@.str.1 = private unnamed_addr constant [26 x i8] c"not a file or file object\00", align 1
@H5E_LINK_g = external global i64, align 8
@__func__.H5VL__native_link_copy = private unnamed_addr constant [23 x i8] c"H5VL__native_link_copy\00", align 1
@H5E_CANTCOPY_g = external global i64, align 8
@.str.5 = private unnamed_addr constant [20 x i8] c"unable to copy link\00", align 1

; Function Attrs: nounwind uwtable
define i32 @H5VL__native_link_copy(ptr noundef %0, ptr noundef %1, ptr noundef %2, ptr noundef %3, i64 noundef %4, i64 noundef %5, i64 noundef %6, ptr noundef %7) #0 {
  %9 = alloca ptr, align 8
  %10 = alloca ptr, align 8
  %11 = alloca ptr, align 8
  %12 = alloca ptr, align 8
  %13 = alloca i64, align 8
  %14 = alloca i64, align 8
  %15 = alloca i64, align 8
  %16 = alloca ptr, align 8
  %17 = alloca %struct.H5G_loc_t, align 8
  %18 = alloca ptr, align 8
  %19 = alloca %struct.H5G_loc_t, align 8
  %20 = alloca ptr, align 8
  %21 = alloca i32, align 4
  %22 = alloca i8, align 1
  store ptr %0, ptr %9, align 8
  store ptr %1, ptr %10, align 8
  store ptr %2, ptr %11, align 8
  store ptr %3, ptr %12, align 8
  store i64 %4, ptr %13, align 8
  store i64 %5, ptr %14, align 8
  store i64 %6, ptr %15, align 8
  store ptr %7, ptr %16, align 8
  store i32 0, ptr %21, align 4
  store i8 0, ptr %22, align 1
  %23 = load ptr, ptr %9, align 8
  %24 = icmp ne ptr null, %23
  br i1 %24, label %25, label %47

25:                                               ; preds = %8
  %26 = load ptr, ptr %9, align 8
  %27 = load ptr, ptr %10, align 8
  %28 = getelementptr inbounds %struct.H5VL_loc_params_t, ptr %27, i32 0, i32 0
  %29 = load i32, ptr %28, align 8
  %30 = call i32 @H5G_loc_real(ptr noundef %26, i32 noundef %29, ptr noundef %17)
  %31 = icmp slt i32 %30, 0
  br i1 %31, label %32, label %47

32:                                               ; preds = %25
  br label %33

33:                                               ; preds = %32
  br label %34

34:                                               ; preds = %33
  br label %35

35:                                               ; preds = %34
  %36 = load i64, ptr @H5E_ARGS_g, align 8
  %37 = load i64, ptr @H5E_BADTYPE_g, align 8
  %38 = call i32 (ptr, ptr, i32, i64, i64, ptr, ...) @H5E_printf_stack(ptr noundef @.str, ptr noundef @__func__.H5VL__native_link_copy, i32 noundef 171, i64 noundef %36, i64 noundef %37, ptr noundef @.str.1)
  br label %39

39:                                               ; preds = %35
  store i8 1, ptr %22, align 1
  %40 = load i8, ptr %22, align 1
  %41 = trunc i8 %40 to i1
  %42 = zext i1 %41 to i8
  store i8 %42, ptr %22, align 1
  br label %43

43:                                               ; preds = %39
  br label %44

44:                                               ; preds = %43
  store i32 -1, ptr %21, align 4
  br label %113

45:                                               ; No predecessors!
  br label %46

46:                                               ; preds = %45
  br label %47

47:                                               ; preds = %46, %25, %8
  %48 = load ptr, ptr %11, align 8
  %49 = icmp ne ptr null, %48
  br i1 %49, label %50, label %72

50:                                               ; preds = %47
  %51 = load ptr, ptr %11, align 8
  %52 = load ptr, ptr %12, align 8
  %53 = getelementptr inbounds %struct.H5VL_loc_params_t, ptr %52, i32 0, i32 0
  %54 = load i32, ptr %53, align 8
  %55 = call i32 @H5G_loc_real(ptr noundef %51, i32 noundef %54, ptr noundef %19)
  %56 = icmp slt i32 %55, 0
  br i1 %56, label %57, label %72

57:                                               ; preds = %50
  br label %58

58:                                               ; preds = %57
  br label %59

59:                                               ; preds = %58
  br label %60

60:                                               ; preds = %59
  %61 = load i64, ptr @H5E_ARGS_g, align 8
  %62 = load i64, ptr @H5E_BADTYPE_g, align 8
  %63 = call i32 (ptr, ptr, i32, i64, i64, ptr, ...) @H5E_printf_stack(ptr noundef @.str, ptr noundef @__func__.H5VL__native_link_copy, i32 noundef 173, i64 noundef %61, i64 noundef %62, ptr noundef @.str.1)
  br label %64

64:                                               ; preds = %60
  store i8 1, ptr %22, align 1
  %65 = load i8, ptr %22, align 1
  %66 = trunc i8 %65 to i1
  %67 = zext i1 %66 to i8
  store i8 %67, ptr %22, align 1
  br label %68

68:                                               ; preds = %64
  br label %69

69:                                               ; preds = %68
  store i32 -1, ptr %21, align 4
  br label %113

70:                                               ; No predecessors!
  br label %71

71:                                               ; preds = %70
  br label %72

72:                                               ; preds = %71, %50, %47
  store ptr %17, ptr %18, align 8
  store ptr %19, ptr %20, align 8
  %73 = load ptr, ptr %9, align 8
  %74 = icmp eq ptr null, %73
  br i1 %74, label %75, label %77

75:                                               ; preds = %72
  %76 = load ptr, ptr %20, align 8
  store ptr %76, ptr %18, align 8
  br label %83

77:                                               ; preds = %72
  %78 = load ptr, ptr %11, align 8
  %79 = icmp eq ptr null, %78
  br i1 %79, label %80, label %82

80:                                               ; preds = %77
  %81 = load ptr, ptr %18, align 8
  store ptr %81, ptr %20, align 8
  br label %82

82:                                               ; preds = %80, %77
  br label %83

83:                                               ; preds = %82, %75
  %84 = load ptr, ptr %18, align 8
  %85 = load ptr, ptr %10, align 8
  %86 = getelementptr inbounds %struct.H5VL_loc_params_t, ptr %85, i32 0, i32 2
  %87 = getelementptr inbounds %struct.H5VL_loc_by_name, ptr %86, i32 0, i32 0
  %88 = load ptr, ptr %87, align 8
  %89 = load ptr, ptr %20, align 8
  %90 = load ptr, ptr %12, align 8
  %91 = getelementptr inbounds %struct.H5VL_loc_params_t, ptr %90, i32 0, i32 2
  %92 = getelementptr inbounds %struct.H5VL_loc_by_name, ptr %91, i32 0, i32 0
  %93 = load ptr, ptr %92, align 8
  %94 = load i64, ptr %13, align 8
  %95 = call i32 @H5L__move(ptr noundef %84, ptr noundef %88, ptr noundef %89, ptr noundef %93, i1 noundef zeroext true, i64 noundef %94)
  %96 = icmp slt i32 %95, 0
  br i1 %96, label %97, label %112

97:                                               ; preds = %83
  br label %98

98:                                               ; preds = %97
  br label %99

99:                                               ; preds = %98
  br label %100

100:                                              ; preds = %99
  %101 = load i64, ptr @H5E_LINK_g, align 8
  %102 = load i64, ptr @H5E_CANTCOPY_g, align 8
  %103 = call i32 (ptr, ptr, i32, i64, i64, ptr, ...) @H5E_printf_stack(ptr noundef @.str, ptr noundef @__func__.H5VL__native_link_copy, i32 noundef 186, i64 noundef %101, i64 noundef %102, ptr noundef @.str.5)
  br label %104

104:                                              ; preds = %100
  store i8 1, ptr %22, align 1
  %105 = load i8, ptr %22, align 1
  %106 = trunc i8 %105 to i1
  %107 = zext i1 %106 to i8
  store i8 %107, ptr %22, align 1
  br label %108

108:                                              ; preds = %104
  br label %109

109:                                              ; preds = %108
  store i32 -1, ptr %21, align 4
  br label %113

110:                                              ; No predecessors!
  br label %111

111:                                              ; preds = %110
  br label %112

112:                                              ; preds = %111, %83
  br label %113

113:                                              ; preds = %112, %109, %69, %44
  %114 = load i32, ptr %21, align 4
  ret i32 %114
}