; Function Attrs: nounwind uwtable
define range(i32 -1, 1) i32 @H5VL__native_link_copy(ptr noundef %0, ptr nocapture noundef readonly %1, ptr noundef %2, ptr nocapture noundef readonly %3, i64 noundef %4, i64 noundef %5, i64 noundef %6, ptr nocapture noundef readnone %7) local_unnamed_addr #0 {
  %9 = alloca %struct.H5G_loc_t, align 8
  %10 = alloca %struct.H5G_loc_t, align 8
  %.not = icmp eq ptr %0, null
  br i1 %.not, label %19, label %11

11:                                               ; preds = %8
  %12 = load i32, ptr %1, align 8
  %13 = call i32 @H5G_loc_real(ptr noundef nonnull %0, i32 noundef %12, ptr noundef nonnull %9) #2
  %14 = icmp slt i32 %13, 0
  br i1 %14, label %15, label %19

15:                                               ; preds = %11
  %16 = load i64, ptr @H5E_ARGS_g, align 8
  %17 = load i64, ptr @H5E_BADTYPE_g, align 8
  %18 = call i32 (ptr, ptr, i32, i64, i64, ptr, ...) @H5E_printf_stack(ptr noundef nonnull @.str, ptr noundef nonnull @__func__.H5VL__native_link_copy, i32 noundef 171, i64 noundef %16, i64 noundef %17, ptr noundef nonnull @.str.1) #2
  br label %39

19:                                               ; preds = %11, %8
  %.not22 = icmp eq ptr %2, null
  br i1 %.not22, label %28, label %20

20:                                               ; preds = %19
  %21 = load i32, ptr %3, align 8
  %22 = call i32 @H5G_loc_real(ptr noundef nonnull %2, i32 noundef %21, ptr noundef nonnull %10) #2
  %23 = icmp slt i32 %22, 0
  br i1 %23, label %24, label %28

24:                                               ; preds = %20
  %25 = load i64, ptr @H5E_ARGS_g, align 8
  %26 = load i64, ptr @H5E_BADTYPE_g, align 8
  %27 = call i32 (ptr, ptr, i32, i64, i64, ptr, ...) @H5E_printf_stack(ptr noundef nonnull @.str, ptr noundef nonnull @__func__.H5VL__native_link_copy, i32 noundef 173, i64 noundef %25, i64 noundef %26, ptr noundef nonnull @.str.1) #2
  br label %39

28:                                               ; preds = %20, %19
  %spec.select = phi ptr [ %10, %20 ], [ %9, %19 ]
  %.019 = select i1 %.not, ptr %10, ptr %9
  %.018 = select i1 %.not, ptr %10, ptr %spec.select
  %29 = getelementptr inbounds i8, ptr %1, i64 8
  %30 = load ptr, ptr %29, align 8
  %31 = getelementptr inbounds i8, ptr %3, i64 8
  %32 = load ptr, ptr %31, align 8
  %33 = call i32 @H5L__move(ptr noundef nonnull %.019, ptr noundef %30, ptr noundef nonnull %.018, ptr noundef %32, i1 noundef zeroext true, i64 noundef %4) #2
  %34 = icmp slt i32 %33, 0
  br i1 %34, label %35, label %39

35:                                               ; preds = %28
  %36 = load i64, ptr @H5E_LINK_g, align 8
  %37 = load i64, ptr @H5E_CANTCOPY_g, align 8
  %38 = call i32 (ptr, ptr, i32, i64, i64, ptr, ...) @H5E_printf_stack(ptr noundef nonnull @.str, ptr noundef nonnull @__func__.H5VL__native_link_copy, i32 noundef 186, i64 noundef %36, i64 noundef %37, ptr noundef nonnull @.str.5) #2
  br label %39

39:                                               ; preds = %28, %35, %24, %15
  %.0 = phi i32 [ -1, %15 ], [ -1, %24 ], [ -1, %35 ], [ 0, %28 ]
  ret i32 %.0
}